(lp1
S'216.59.38.185:7808'
p2
aS'76.164.213.124:8089'
p3
aS'198.148.112.46:7808'
p4
aS'199.241.137.180:7808'
p5
aS'198.52.199.152:3127'
p6
aS'107.182.16.221:7808'
p7
aS'192.3.207.156:7808'
p8
aS'178.21.112.27:3128'
p9
aS'216.59.38.184:7808'
p10
aS'190.102.113.116:8089'
p11
aS'119.46.110.17:80'
p12
aS'198.136.50.131:7808'
p13
aS'128.199.247.148:8080'
p14
aS'199.200.120.140:3127'
p15
aS'37.236.167.250:80'
p16
aS'107.182.135.94:7808'
p17
aS'198.144.155.12:7808'
p18
aS'192.227.139.227:3127'
p19
aS'37.239.46.2:80'
p20
aS'192.3.150.38:8080'
p21
aS'107.182.135.43:7808'
p22
aS'37.239.46.42:80'
p23
aS'192.99.64.202:3128'
p24
aS'86.51.26.21:8088'
p25
aS'190.102.113.117:8089'
p26
aS'23.89.198.161:7808'
p27
aS'66.85.131.18:7808'
p28
aS'66.209.190.120:7808'
p29
aS'203.223.45.110:80'
p30
aS'216.189.101.121:7808'
p31
aS'86.51.26.22:8088'
p32
aS'198.52.217.44:3127'
p33
aS'86.51.26.16:8080'
p34
aS'98.143.148.82:7808'
p35
aS'69.10.137.139:3128'
p36
aS'86.51.26.18:8088'
p37
aS'198.23.251.248:8089'
p38
aS'86.51.26.15:8080'
p39
aS'86.51.26.23:8088'
p40
aS'86.51.26.20:8088'
p41
aS'149.255.255.250:80'
p42
aS'69.10.137.138:3128'
p43
aS'62.113.208.89:7808'
p44
aS'209.170.151.142:7808'
p45
aS'149.255.255.242:80'
p46
aS'37.239.46.18:80'
p47
aS'86.51.26.12:8088'
p48
aS'195.142.122.62:3128'
p49
aS'86.51.26.13:8888'
p50
aS'86.51.26.14:443'
p51
aS'195.222.127.21:3128'
p52
aS'163.30.172.4:8080'
p53
aS'61.230.25.250:1143'
p54
aS'86.51.26.19:8080'
p55
aS'86.51.26.11:80'
p56
aS'78.29.9.104:3128'
p57
aS'54.186.194.99:80'
p58
aS'46.151.209.203:8080'
p59
a.